target datalayout = "e-m:e-p270:32:32-p271:32:32-p272:64:64-i64:64-i128:128-f80:128-n8:16:32:64-S128"
target triple = "x86_64-pc-linux-gnu"

@hf_rtls_message_type = internal global i32 0, align 4
@hf_rtls_message_id = internal global i32 0, align 4
@hf_rtls_version_major = internal global i32 0, align 4
@hf_rtls_version_minor = internal global i32 0, align 4
@hf_rtls_data_length = internal global i32 0, align 4
@hf_rtls_ap_mac = internal global i32 0, align 4
@hf_rtls_padding = internal global i32 0, align 4

; Function Attrs: null_pointer_is_valid sspstrong uwtable
define internal i32 @dissect_rtls_header(ptr noundef %0, ptr noundef %1, ptr noundef %2, i32 noundef %3, ptr noundef %4) #0 {
  %6 = alloca ptr, align 8
  %7 = alloca ptr, align 8
  %8 = alloca ptr, align 8
  %9 = alloca i32, align 4
  %10 = alloca ptr, align 8
  store ptr %0, ptr %6, align 8
  store ptr %1, ptr %7, align 8
  store ptr %2, ptr %8, align 8
  store i32 %3, ptr %9, align 4
  store ptr %4, ptr %10, align 8
  %11 = load ptr, ptr %8, align 8
  %12 = load i32, ptr @hf_rtls_message_type, align 4
  %13 = load ptr, ptr %6, align 8
  %14 = load i32, ptr %9, align 4
  %15 = call ptr @proto_tree_add_item(ptr noundef %11, i32 noundef %12, ptr noundef %13, i32 noundef %14, i32 noundef 2, i32 noundef 0)
  %16 = load i32, ptr %9, align 4
  %17 = add i32 %16, 2
  store i32 %17, ptr %9, align 4
  %18 = load ptr, ptr %8, align 8
  %19 = load i32, ptr @hf_rtls_message_id, align 4
  %20 = load ptr, ptr %6, align 8
  %21 = load i32, ptr %9, align 4
  %22 = call ptr @proto_tree_add_item(ptr noundef %18, i32 noundef %19, ptr noundef %20, i32 noundef %21, i32 noundef 2, i32 noundef 0)
  %23 = load i32, ptr %9, align 4
  %24 = add i32 %23, 2
  store i32 %24, ptr %9, align 4
  %25 = load ptr, ptr %8, align 8
  %26 = load i32, ptr @hf_rtls_version_major, align 4
  %27 = load ptr, ptr %6, align 8
  %28 = load i32, ptr %9, align 4
  %29 = call ptr @proto_tree_add_item(ptr noundef %25, i32 noundef %26, ptr noundef %27, i32 noundef %28, i32 noundef 1, i32 noundef 0)
  %30 = load i32, ptr %9, align 4
  %31 = add i32 %30, 1
  store i32 %31, ptr %9, align 4
  %32 = load ptr, ptr %8, align 8
  %33 = load i32, ptr @hf_rtls_version_minor, align 4
  %34 = load ptr, ptr %6, align 8
  %35 = load i32, ptr %9, align 4
  %36 = call ptr @proto_tree_add_item(ptr noundef %32, i32 noundef %33, ptr noundef %34, i32 noundef %35, i32 noundef 1, i32 noundef 0)
  %37 = load i32, ptr %9, align 4
  %38 = add i32 %37, 1
  store i32 %38, ptr %9, align 4
  %39 = load ptr, ptr %8, align 8
  %40 = load i32, ptr @hf_rtls_data_length, align 4
  %41 = load ptr, ptr %6, align 8
  %42 = load i32, ptr %9, align 4
  %43 = call ptr @proto_tree_add_item(ptr noundef %39, i32 noundef %40, ptr noundef %41, i32 noundef %42, i32 noundef 2, i32 noundef 0)
  %44 = load ptr, ptr %10, align 8
  %45 = icmp ne ptr %44, null
  br i1 %45, label %46, label %52

46:                                               ; preds = %5
  %47 = load ptr, ptr %6, align 8
  %48 = load i32, ptr %9, align 4
  %49 = call zeroext i16 @tvb_get_ntohs(ptr noundef %47, i32 noundef %48)
  %50 = zext i16 %49 to i32
  %51 = load ptr, ptr %10, align 8
  store i32 %50, ptr %51, align 4
  br label %52

52:                                               ; preds = %46, %5
  %53 = load i32, ptr %9, align 4
  %54 = add i32 %53, 2
  store i32 %54, ptr %9, align 4
  %55 = load ptr, ptr %8, align 8
  %56 = load i32, ptr @hf_rtls_ap_mac, align 4
  %57 = load ptr, ptr %6, align 8
  %58 = load i32, ptr %9, align 4
  %59 = call ptr @proto_tree_add_item(ptr noundef %55, i32 noundef %56, ptr noundef %57, i32 noundef %58, i32 noundef 6, i32 noundef 0)
  %60 = load i32, ptr %9, align 4
  %61 = add i32 %60, 6
  store i32 %61, ptr %9, align 4
  %62 = load ptr, ptr %8, align 8
  %63 = load i32, ptr @hf_rtls_padding, align 4
  %64 = load ptr, ptr %6, align 8
  %65 = load i32, ptr %9, align 4
  %66 = call ptr @proto_tree_add_item(ptr noundef %62, i32 noundef %63, ptr noundef %64, i32 noundef %65, i32 noundef 2, i32 noundef 0)
  %67 = load i32, ptr %9, align 4
  %68 = add i32 %67, 2
  store i32 %68, ptr %9, align 4
  %69 = load i32, ptr %9, align 4
  ret i32 %69
}