; Function Attrs: null_pointer_is_valid sspstrong uwtable
define internal fastcc noundef i32 @dissect_rtls_header(ptr noundef %0, ptr noundef %1, i32 noundef %2, ptr noundef writeonly captures(address_is_null) %3) unnamed_addr #0 {
  %5 = load i32, ptr @hf_rtls_message_type, align 4
  %6 = tail call ptr @proto_tree_add_item(ptr noundef %1, i32 noundef %5, ptr noundef %0, i32 noundef %2, i32 noundef 2, i32 noundef 0)
  %7 = add i32 %2, 2
  %8 = load i32, ptr @hf_rtls_message_id, align 4
  %9 = tail call ptr @proto_tree_add_item(ptr noundef %1, i32 noundef %8, ptr noundef %0, i32 noundef %7, i32 noundef 2, i32 noundef 0)
  %10 = add i32 %2, 4
  %11 = load i32, ptr @hf_rtls_version_major, align 4
  %12 = tail call ptr @proto_tree_add_item(ptr noundef %1, i32 noundef %11, ptr noundef %0, i32 noundef %10, i32 noundef 1, i32 noundef 0)
  %13 = add i32 %2, 5
  %14 = load i32, ptr @hf_rtls_version_minor, align 4
  %15 = tail call ptr @proto_tree_add_item(ptr noundef %1, i32 noundef %14, ptr noundef %0, i32 noundef %13, i32 noundef 1, i32 noundef 0)
  %16 = add i32 %2, 6
  %17 = load i32, ptr @hf_rtls_data_length, align 4
  %18 = tail call ptr @proto_tree_add_item(ptr noundef %1, i32 noundef %17, ptr noundef %0, i32 noundef %16, i32 noundef 2, i32 noundef 0)
  %.not = icmp eq ptr %3, null
  br i1 %.not, label %22, label %19

19:                                               ; preds = %4
  %20 = tail call zeroext i16 @tvb_get_ntohs(ptr noundef %0, i32 noundef %16)
  %21 = zext i16 %20 to i32
  store i32 %21, ptr %3, align 4
  br label %22

22:                                               ; preds = %19, %4
  %23 = add i32 %2, 8
  %24 = load i32, ptr @hf_rtls_ap_mac, align 4
  %25 = tail call ptr @proto_tree_add_item(ptr noundef %1, i32 noundef %24, ptr noundef %0, i32 noundef %23, i32 noundef 6, i32 noundef 0)
  %26 = add i32 %2, 14
  %27 = load i32, ptr @hf_rtls_padding, align 4
  %28 = tail call ptr @proto_tree_add_item(ptr noundef %1, i32 noundef %27, ptr noundef %0, i32 noundef %26, i32 noundef 2, i32 noundef 0)
  %29 = add i32 %2, 16
  ret i32 %29
}